
a.out3.vecTest:     file format elf32-tradlittlemips


Disassembly of section .text:

004000b0 <main>:
  4000b0:	27bdfff0 	addiu	sp,sp,-16
  4000b4:	afbe000c 	sw	s8,12(sp)
  4000b8:	03a0f025 	move	s8,sp
  4000bc:	afc00000 	sw	zero,0(s8)
  4000c0:	1000000d 	b	4000f8 <main+0x48>
  4000c4:	00000000 	nop
  4000c8:	8f838004 	lw	v1,-32764(gp)
  4000cc:	3c020041 	lui	v0,0x41
  4000d0:	8fc40000 	lw	a0,0(s8)
  4000d4:	00000000 	nop
  4000d8:	00042080 	sll	a0,a0,0x2
  4000dc:	24420198 	addiu	v0,v0,408
  4000e0:	00821021 	addu	v0,a0,v0
  4000e4:	ac430000 	sw	v1,0(v0)
  4000e8:	8fc20000 	lw	v0,0(s8)
  4000ec:	00000000 	nop
  4000f0:	24420001 	addiu	v0,v0,1
  4000f4:	afc20000 	sw	v0,0(s8)
  4000f8:	8fc20000 	lw	v0,0(s8)
  4000fc:	00000000 	nop
  400100:	28420064 	slti	v0,v0,100
  400104:	1440fff0 	bnez	v0,4000c8 <main+0x18>
  400108:	00000000 	nop
  40010c:	afc00000 	sw	zero,0(s8)
  400110:	10000010 	b	400154 <main+0xa4>
  400114:	00000000 	nop
  400118:	3c020041 	lui	v0,0x41
  40011c:	8fc30000 	lw	v1,0(s8)
  400120:	00000000 	nop
  400124:	00031880 	sll	v1,v1,0x2
  400128:	24420198 	addiu	v0,v0,408
  40012c:	00621021 	addu	v0,v1,v0
  400130:	8c430000 	lw	v1,0(v0)
  400134:	8f828004 	lw	v0,-32764(gp)
  400138:	00000000 	nop
  40013c:	00621021 	addu	v0,v1,v0
  400140:	af828004 	sw	v0,-32764(gp)
  400144:	8fc20000 	lw	v0,0(s8)
  400148:	00000000 	nop
  40014c:	24420001 	addiu	v0,v0,1
  400150:	afc20000 	sw	v0,0(s8)
  400154:	8fc20000 	lw	v0,0(s8)
  400158:	00000000 	nop
  40015c:	28420064 	slti	v0,v0,100
  400160:	1440ffed 	bnez	v0,400118 <main+0x68>
  400164:	00000000 	nop
  400168:	8f828004 	lw	v0,-32764(gp)
  40016c:	00000000 	nop
  400170:	00402025 	move	a0,v0
  400174:	24020001 	li	v0,1
  400178:	0000000c 	syscall
  40017c:	8f828004 	lw	v0,-32764(gp)
  400180:	03c0e825 	move	sp,s8
  400184:	8fbe000c 	lw	s8,12(sp)
  400188:	27bd0010 	addiu	sp,sp,16
  40018c:	03e00008 	jr	ra
  400190:	00000000 	nop
