
matmat.out:     file format elf32-tradlittlemips


Disassembly of section .text:

004000b0 <main>:
  4000b0:	27bdffe0 	addiu	sp,sp,-32
  4000b4:	afbe001c 	sw	s8,28(sp)
  4000b8:	03a0f025 	move	s8,sp
  4000bc:	afc0000c 	sw	zero,12(s8)
  4000c0:	afc00010 	sw	zero,16(s8)
  4000c4:	afc00000 	sw	zero,0(s8)
  4000c8:	10000050 	b	40020c <main+0x15c>
  4000cc:	00000000 	nop
  4000d0:	afc00004 	sw	zero,4(s8)
  4000d4:	10000044 	b	4001e8 <main+0x138>
  4000d8:	00000000 	nop
  4000dc:	afc00008 	sw	zero,8(s8)
  4000e0:	10000027 	b	400180 <main+0xd0>
  4000e4:	00000000 	nop
  4000e8:	3c040041 	lui	a0,0x41
  4000ec:	8fc30000 	lw	v1,0(s8)
  4000f0:	00000000 	nop
  4000f4:	00601025 	move	v0,v1
  4000f8:	00021040 	sll	v0,v0,0x1
  4000fc:	00431021 	addu	v0,v0,v1
  400100:	00021080 	sll	v0,v0,0x2
  400104:	8fc30008 	lw	v1,8(s8)
  400108:	00000000 	nop
  40010c:	00431021 	addu	v0,v0,v1
  400110:	00021880 	sll	v1,v0,0x2
  400114:	248203c8 	addiu	v0,a0,968
  400118:	00621021 	addu	v0,v1,v0
  40011c:	8c440000 	lw	a0,0(v0)
  400120:	3c050041 	lui	a1,0x41
  400124:	8fc30008 	lw	v1,8(s8)
  400128:	00000000 	nop
  40012c:	00601025 	move	v0,v1
  400130:	00021040 	sll	v0,v0,0x1
  400134:	00431021 	addu	v0,v0,v1
  400138:	00021080 	sll	v0,v0,0x2
  40013c:	8fc30004 	lw	v1,4(s8)
  400140:	00000000 	nop
  400144:	00431021 	addu	v0,v0,v1
  400148:	00021880 	sll	v1,v0,0x2
  40014c:	24a20608 	addiu	v0,a1,1544
  400150:	00621021 	addu	v0,v1,v0
  400154:	8c420000 	lw	v0,0(v0)
  400158:	00000000 	nop
  40015c:	00820018 	mult	a0,v0
  400160:	8fc20010 	lw	v0,16(s8)
  400164:	00001812 	mflo	v1
  400168:	00431021 	addu	v0,v0,v1
  40016c:	afc20010 	sw	v0,16(s8)
  400170:	8fc20008 	lw	v0,8(s8)
  400174:	00000000 	nop
  400178:	24420001 	addiu	v0,v0,1
  40017c:	afc20008 	sw	v0,8(s8)
  400180:	8fc20008 	lw	v0,8(s8)
  400184:	00000000 	nop
  400188:	2842000c 	slti	v0,v0,12
  40018c:	1440ffd6 	bnez	v0,4000e8 <main+0x38>
  400190:	00000000 	nop
  400194:	3c040041 	lui	a0,0x41
  400198:	8fc30000 	lw	v1,0(s8)
  40019c:	00000000 	nop
  4001a0:	00601025 	move	v0,v1
  4001a4:	00021040 	sll	v0,v0,0x1
  4001a8:	00431021 	addu	v0,v0,v1
  4001ac:	00021080 	sll	v0,v0,0x2
  4001b0:	8fc30004 	lw	v1,4(s8)
  4001b4:	00000000 	nop
  4001b8:	00431021 	addu	v0,v0,v1
  4001bc:	00021880 	sll	v1,v0,0x2
  4001c0:	24820a88 	addiu	v0,a0,2696
  4001c4:	00621021 	addu	v0,v1,v0
  4001c8:	8fc30010 	lw	v1,16(s8)
  4001cc:	00000000 	nop
  4001d0:	ac430000 	sw	v1,0(v0)
  4001d4:	afc00010 	sw	zero,16(s8)
  4001d8:	8fc20004 	lw	v0,4(s8)
  4001dc:	00000000 	nop
  4001e0:	24420001 	addiu	v0,v0,1
  4001e4:	afc20004 	sw	v0,4(s8)
  4001e8:	8fc20004 	lw	v0,4(s8)
  4001ec:	00000000 	nop
  4001f0:	2842000c 	slti	v0,v0,12
  4001f4:	1440ffb9 	bnez	v0,4000dc <main+0x2c>
  4001f8:	00000000 	nop
  4001fc:	8fc20000 	lw	v0,0(s8)
  400200:	00000000 	nop
  400204:	24420001 	addiu	v0,v0,1
  400208:	afc20000 	sw	v0,0(s8)
  40020c:	8fc20000 	lw	v0,0(s8)
  400210:	00000000 	nop
  400214:	2842000c 	slti	v0,v0,12
  400218:	1440ffad 	bnez	v0,4000d0 <main+0x20>
  40021c:	00000000 	nop
  400220:	afc00000 	sw	zero,0(s8)
  400224:	10000058 	b	400388 <main+0x2d8>
  400228:	00000000 	nop
  40022c:	afc00004 	sw	zero,4(s8)
  400230:	1000004c 	b	400364 <main+0x2b4>
  400234:	00000000 	nop
  400238:	3c040041 	lui	a0,0x41
  40023c:	8fc30000 	lw	v1,0(s8)
  400240:	00000000 	nop
  400244:	00601025 	move	v0,v1
  400248:	00021040 	sll	v0,v0,0x1
  40024c:	00431021 	addu	v0,v0,v1
  400250:	00021080 	sll	v0,v0,0x2
  400254:	8fc30004 	lw	v1,4(s8)
  400258:	00000000 	nop
  40025c:	00431021 	addu	v0,v0,v1
  400260:	00021880 	sll	v1,v0,0x2
  400264:	24820a88 	addiu	v0,a0,2696
  400268:	00621021 	addu	v0,v1,v0
  40026c:	8c440000 	lw	a0,0(v0)
  400270:	3c050041 	lui	a1,0x41
  400274:	8fc30000 	lw	v1,0(s8)
  400278:	00000000 	nop
  40027c:	00601025 	move	v0,v1
  400280:	00021040 	sll	v0,v0,0x1
  400284:	00431021 	addu	v0,v0,v1
  400288:	00021080 	sll	v0,v0,0x2
  40028c:	8fc30004 	lw	v1,4(s8)
  400290:	00000000 	nop
  400294:	00431021 	addu	v0,v0,v1
  400298:	00021880 	sll	v1,v0,0x2
  40029c:	24a20848 	addiu	v0,a1,2120
  4002a0:	00621021 	addu	v0,v1,v0
  4002a4:	8c420000 	lw	v0,0(v0)
  4002a8:	00000000 	nop
  4002ac:	10820029 	beq	a0,v0,400354 <main+0x2a4>
  4002b0:	00000000 	nop
  4002b4:	8fc2000c 	lw	v0,12(s8)
  4002b8:	00000000 	nop
  4002bc:	24420001 	addiu	v0,v0,1
  4002c0:	afc2000c 	sw	v0,12(s8)
  4002c4:	3c040041 	lui	a0,0x41
  4002c8:	8fc30000 	lw	v1,0(s8)
  4002cc:	00000000 	nop
  4002d0:	00601025 	move	v0,v1
  4002d4:	00021040 	sll	v0,v0,0x1
  4002d8:	00431021 	addu	v0,v0,v1
  4002dc:	00021080 	sll	v0,v0,0x2
  4002e0:	8fc30004 	lw	v1,4(s8)
  4002e4:	00000000 	nop
  4002e8:	00431021 	addu	v0,v0,v1
  4002ec:	00021880 	sll	v1,v0,0x2
  4002f0:	24820a88 	addiu	v0,a0,2696
  4002f4:	00621021 	addu	v0,v1,v0
  4002f8:	8c420000 	lw	v0,0(v0)
  4002fc:	00000000 	nop
  400300:	00402025 	move	a0,v0
  400304:	24020001 	li	v0,1
  400308:	0000000c 	syscall
  40030c:	3c040041 	lui	a0,0x41
  400310:	8fc30000 	lw	v1,0(s8)
  400314:	00000000 	nop
  400318:	00601025 	move	v0,v1
  40031c:	00021040 	sll	v0,v0,0x1
  400320:	00431021 	addu	v0,v0,v1
  400324:	00021080 	sll	v0,v0,0x2
  400328:	8fc30004 	lw	v1,4(s8)
  40032c:	00000000 	nop
  400330:	00431021 	addu	v0,v0,v1
  400334:	00021880 	sll	v1,v0,0x2
  400338:	24820848 	addiu	v0,a0,2120
  40033c:	00621021 	addu	v0,v1,v0
  400340:	8c420000 	lw	v0,0(v0)
  400344:	00000000 	nop
  400348:	00402025 	move	a0,v0
  40034c:	24020001 	li	v0,1
  400350:	0000000c 	syscall
  400354:	8fc20004 	lw	v0,4(s8)
  400358:	00000000 	nop
  40035c:	24420001 	addiu	v0,v0,1
  400360:	afc20004 	sw	v0,4(s8)
  400364:	8fc20004 	lw	v0,4(s8)
  400368:	00000000 	nop
  40036c:	2842000c 	slti	v0,v0,12
  400370:	1440ffb1 	bnez	v0,400238 <main+0x188>
  400374:	00000000 	nop
  400378:	8fc20000 	lw	v0,0(s8)
  40037c:	00000000 	nop
  400380:	24420001 	addiu	v0,v0,1
  400384:	afc20000 	sw	v0,0(s8)
  400388:	8fc20000 	lw	v0,0(s8)
  40038c:	00000000 	nop
  400390:	2842000c 	slti	v0,v0,12
  400394:	1440ffa5 	bnez	v0,40022c <main+0x17c>
  400398:	00000000 	nop
  40039c:	8fc2000c 	lw	v0,12(s8)
  4003a0:	00000000 	nop
  4003a4:	00402025 	move	a0,v0
  4003a8:	24020001 	li	v0,1
  4003ac:	0000000c 	syscall
  4003b0:	00001025 	move	v0,zero
  4003b4:	03c0e825 	move	sp,s8
  4003b8:	8fbe001c 	lw	s8,28(sp)
  4003bc:	27bd0020 	addiu	sp,sp,32
  4003c0:	03e00008 	jr	ra
  4003c4:	00000000 	nop
