
tmr_matmat.out:     file format elf32-tradlittlemips


Disassembly of section .text:

004000b0 <main>:
  4000b0:	27bdfff0 	addiu	sp,sp,-16
  4000b4:	afa00000 	sw	zero,0(sp)
  4000b8:	afa00004 	sw	zero,4(sp)
  4000bc:	afa00008 	sw	zero,8(sp)
  4000c0:	3c0e0041 	lui	t6,0x41
  4000c4:	25ce090c 	addiu	t6,t6,2316
  4000c8:	01c0c025 	move	t8,t6
  4000cc:	00007825 	move	t7,zero
  4000d0:	27a7000c 	addiu	a3,sp,12
  4000d4:	3c0c0041 	lui	t4,0x41
  4000d8:	258c06cc 	addiu	t4,t4,1740
  4000dc:	3c0b0041 	lui	t3,0x41
  4000e0:	256b048c 	addiu	t3,t3,1164
  4000e4:	1000002f 	b	4001a4 <main+0xf4>
  4000e8:	2409000c 	li	t1,12
  4000ec:	10c90018 	beq	a2,t1,400150 <main+0xa0>
  4000f0:	00000000 	nop
  4000f4:	03a01025 	move	v0,sp
  4000f8:	01462821 	addu	a1,t2,a2
  4000fc:	00052880 	sll	a1,a1,0x2
  400100:	00ac2821 	addu	a1,a1,t4
  400104:	00061840 	sll	v1,a2,0x1
  400108:	00661821 	addu	v1,v1,a2
  40010c:	00031880 	sll	v1,v1,0x2
  400110:	00681821 	addu	v1,v1,t0
  400114:	00031880 	sll	v1,v1,0x2
  400118:	006b1821 	addu	v1,v1,t3
  40011c:	8ca40000 	lw	a0,0(a1)
  400120:	8c790000 	lw	t9,0(v1)
  400124:	00000000 	nop
  400128:	00990018 	mult	a0,t9
  40012c:	8c440000 	lw	a0,0(v0)
  400130:	0000c812 	mflo	t9
  400134:	00992021 	addu	a0,a0,t9
  400138:	ac440000 	sw	a0,0(v0)
  40013c:	24420004 	addiu	v0,v0,4
  400140:	1447fff6 	bne	v0,a3,40011c <main+0x6c>
  400144:	00000000 	nop
  400148:	1000ffe8 	b	4000ec <main+0x3c>
  40014c:	24c60001 	addiu	a2,a2,1
  400150:	8fa30004 	lw	v1,4(sp)
  400154:	8fa40008 	lw	a0,8(sp)
  400158:	00000000 	nop
  40015c:	00641025 	or	v0,v1,a0
  400160:	8fa50000 	lw	a1,0(sp)
  400164:	00000000 	nop
  400168:	00451024 	and	v0,v0,a1
  40016c:	00641824 	and	v1,v1,a0
  400170:	00431025 	or	v0,v0,v1
  400174:	ada20000 	sw	v0,0(t5)
  400178:	afa00000 	sw	zero,0(sp)
  40017c:	afa00004 	sw	zero,4(sp)
  400180:	afa00008 	sw	zero,8(sp)
  400184:	25080001 	addiu	t0,t0,1
  400188:	11090003 	beq	t0,t1,400198 <main+0xe8>
  40018c:	25ad0004 	addiu	t5,t5,4
  400190:	1000ffd8 	b	4000f4 <main+0x44>
  400194:	00003025 	move	a2,zero
  400198:	25ef0001 	addiu	t7,t7,1
  40019c:	11e90007 	beq	t7,t1,4001bc <main+0x10c>
  4001a0:	27180030 	addiu	t8,t8,48
  4001a4:	03006825 	move	t5,t8
  4001a8:	00004025 	move	t0,zero
  4001ac:	000f5040 	sll	t2,t7,0x1
  4001b0:	014f5021 	addu	t2,t2,t7
  4001b4:	1000fff6 	b	400190 <main+0xe0>
  4001b8:	000a5080 	sll	t2,t2,0x2
  4001bc:	25c70030 	addiu	a3,t6,48
  4001c0:	25c80270 	addiu	t0,t6,624
  4001c4:	00003025 	move	a2,zero
  4001c8:	3c020041 	lui	v0,0x41
  4001cc:	2442021c 	addiu	v0,v0,540
  4001d0:	10000015 	b	400228 <main+0x178>
  4001d4:	004e7023 	subu	t6,v0,t6
  4001d8:	24420004 	addiu	v0,v0,4
  4001dc:	10e2000f 	beq	a3,v0,40021c <main+0x16c>
  4001e0:	24630004 	addiu	v1,v1,4
  4001e4:	8c450000 	lw	a1,0(v0)
  4001e8:	8c640000 	lw	a0,0(v1)
  4001ec:	00000000 	nop
  4001f0:	10a4fff9 	beq	a1,a0,4001d8 <main+0x128>
  4001f4:	00000000 	nop
  4001f8:	24c60001 	addiu	a2,a2,1
  4001fc:	00a02025 	move	a0,a1
  400200:	24020001 	li	v0,1
  400204:	0000000c 	syscall
  400208:	00802025 	move	a0,a0
  40020c:	24020001 	li	v0,1
  400210:	0000000c 	syscall
  400214:	1000fff1 	b	4001dc <main+0x12c>
  400218:	24420004 	addiu	v0,v0,4
  40021c:	24e70030 	addiu	a3,a3,48
  400220:	10e80004 	beq	a3,t0,400234 <main+0x184>
  400224:	00000000 	nop
  400228:	24e2ffd0 	addiu	v0,a3,-48
  40022c:	1000ffed 	b	4001e4 <main+0x134>
  400230:	01c71821 	addu	v1,t6,a3
  400234:	00c02025 	move	a0,a2
  400238:	24020001 	li	v0,1
  40023c:	0000000c 	syscall
  400240:	00001025 	move	v0,zero
  400244:	03e00008 	jr	ra
  400248:	27bd0010 	addiu	sp,sp,16
