
tmr_matmat.out:     file format elf32-tradlittlemips


Disassembly of section .MIPS.abiflags:

00400098 <.MIPS.abiflags>:
  400098:	00010000 	sll	zero,at,0x0
  40009c:	03000001 	0x3000001
	...

Disassembly of section .reginfo:

004000b0 <.reginfo>:
  4000b0:	a300fffc 	sb	zero,-4(t8)
	...
  4000c4:	00418900 	0x418900

Disassembly of section .text:

004000b0 <main>:
  4000b0:	27bdfff0 	addiu	sp,sp,-16
  4000b4:	afa00000 	sw	zero,0(sp)
  4000b8:	afa00004 	sw	zero,4(sp)
  4000bc:	afa00008 	sw	zero,8(sp)
  4000c0:	3c0e0041 	lui	t6,0x41
  4000c4:	25ce090c 	addiu	t6,t6,2316
  4000c8:	01c0c025 	move	t8,t6
  4000cc:	00007825 	move	t7,zero
  4000d0:	27a7000c 	addiu	a3,sp,12
  4000d4:	3c0c0041 	lui	t4,0x41
  4000d8:	258c06cc 	addiu	t4,t4,1740
  4000dc:	3c0b0041 	lui	t3,0x41
  4000e0:	256b048c 	addiu	t3,t3,1164
  4000e4:	1000002f 	b	4001a4 <main+0xf4>
  4000e8:	2409000c 	li	t1,12
  4000ec:	10c90018 	beq	a2,t1,400150 <main+0xa0>
  4000f0:	00000000 	nop
  4000f4:	03a01025 	move	v0,sp
  4000f8:	01462821 	addu	a1,t2,a2
  4000fc:	00052880 	sll	a1,a1,0x2
  400100:	00ac2821 	addu	a1,a1,t4
  400104:	00061840 	sll	v1,a2,0x1
  400108:	00661821 	addu	v1,v1,a2
  40010c:	00031880 	sll	v1,v1,0x2
  400110:	00681821 	addu	v1,v1,t0
  400114:	00031880 	sll	v1,v1,0x2
  400118:	006b1821 	addu	v1,v1,t3
  40011c:	8ca40000 	lw	a0,0(a1)
  400120:	8c790000 	lw	t9,0(v1)
  400124:	00000000 	nop
  400128:	00990018 	mult	a0,t9
  40012c:	8c440000 	lw	a0,0(v0)
  400130:	0000c812 	mflo	t9
  400134:	00992021 	addu	a0,a0,t9
  400138:	ac440000 	sw	a0,0(v0)
  40013c:	24420004 	addiu	v0,v0,4
  400140:	1447fff6 	bne	v0,a3,40011c <main+0x6c>
  400144:	00000000 	nop
  400148:	1000ffe8 	b	4000ec <main+0x3c>
  40014c:	24c60001 	addiu	a2,a2,1
  400150:	8fa30004 	lw	v1,4(sp)
  400154:	8fa40008 	lw	a0,8(sp)
  400158:	00000000 	nop
  40015c:	00641025 	or	v0,v1,a0
  400160:	8fa50000 	lw	a1,0(sp)
  400164:	00000000 	nop
  400168:	00451024 	and	v0,v0,a1
  40016c:	00641824 	and	v1,v1,a0
  400170:	00431025 	or	v0,v0,v1
  400174:	ada20000 	sw	v0,0(t5)
  400178:	afa00000 	sw	zero,0(sp)
  40017c:	afa00004 	sw	zero,4(sp)
  400180:	afa00008 	sw	zero,8(sp)
  400184:	25080001 	addiu	t0,t0,1
  400188:	11090003 	beq	t0,t1,400198 <main+0xe8>
  40018c:	25ad0004 	addiu	t5,t5,4
  400190:	1000ffd8 	b	4000f4 <main+0x44>
  400194:	00003025 	move	a2,zero
  400198:	25ef0001 	addiu	t7,t7,1
  40019c:	11e90007 	beq	t7,t1,4001bc <main+0x10c>
  4001a0:	27180030 	addiu	t8,t8,48
  4001a4:	03006825 	move	t5,t8
  4001a8:	00004025 	move	t0,zero
  4001ac:	000f5040 	sll	t2,t7,0x1
  4001b0:	014f5021 	addu	t2,t2,t7
  4001b4:	1000fff6 	b	400190 <main+0xe0>
  4001b8:	000a5080 	sll	t2,t2,0x2
  4001bc:	25c70030 	addiu	a3,t6,48
  4001c0:	25c80270 	addiu	t0,t6,624
  4001c4:	00003025 	move	a2,zero
  4001c8:	3c020041 	lui	v0,0x41
  4001cc:	2442021c 	addiu	v0,v0,540
  4001d0:	10000015 	b	400228 <main+0x178>
  4001d4:	004e7023 	subu	t6,v0,t6
  4001d8:	24420004 	addiu	v0,v0,4
  4001dc:	10e2000f 	beq	a3,v0,40021c <main+0x16c>
  4001e0:	24630004 	addiu	v1,v1,4
  4001e4:	8c450000 	lw	a1,0(v0)
  4001e8:	8c640000 	lw	a0,0(v1)
  4001ec:	00000000 	nop
  4001f0:	10a4fff9 	beq	a1,a0,4001d8 <main+0x128>
  4001f4:	00000000 	nop
  4001f8:	24c60001 	addiu	a2,a2,1
  4001fc:	00a02025 	move	a0,a1
  400200:	24020001 	li	v0,1
  400204:	0000000c 	syscall
  400208:	00802025 	move	a0,a0
  40020c:	24020001 	li	v0,1
  400210:	0000000c 	syscall
  400214:	1000fff1 	b	4001dc <main+0x12c>
  400218:	24420004 	addiu	v0,v0,4
  40021c:	24e70030 	addiu	a3,a3,48
  400220:	10e80004 	beq	a3,t0,400234 <main+0x184>
  400224:	00000000 	nop
  400228:	24e2ffd0 	addiu	v0,a3,-48
  40022c:	1000ffed 	b	4001e4 <main+0x134>
  400230:	01c71821 	addu	v1,t6,a3
  400234:	00c02025 	move	a0,a2
  400238:	24020001 	li	v0,1
  40023c:	0000000c 	syscall
  400240:	00001025 	move	v0,zero
  400244:	03e00008 	jr	ra
  400248:	27bd0010 	addiu	sp,sp,16

Disassembly of section .data:

0041024c <goldenM>:
  41024c:	9d5ea77b 	0x9d5ea77b
  410250:	23a6bbbd 	addi	a2,sp,-17475
  410254:	36f86f2c 	ori	t8,s7,0x6f2c
  410258:	2732e990 	addiu	s2,t9,-5744
  41025c:	f73894cd 	0xf73894cd
  410260:	040a14b8 	0x40a14b8
  410264:	992f00f4 	lwr	t7,244(t1)
  410268:	176927b5 	bne	k1,t1,41a140 <_gp+0x1840>
  41026c:	0fa4dbed 	jal	e936fb4 <_gp+0xe51e6b4>
  410270:	7332ae33 	0x7332ae33
  410274:	aea34c21 	sw	v1,19489(s5)
  410278:	76893ff5 	jalx	a24ffd4 <_gp+0x9e376d4>
  41027c:	d9a8b9d7 	0xd9a8b9d7
  410280:	013e1eb7 	0x13e1eb7
  410284:	4955d7f5 	0x4955d7f5
  410288:	409fdca4 	0x409fdca4
  41028c:	9f914571 	0x9f914571
  410290:	e455765a 	swc1	$f21,30298(v0)
  410294:	022b6889 	0x22b6889
  410298:	2115480c 	addi	s5,t0,18444
  41029c:	9bb93a28 	lwr	t9,14888(sp)
  4102a0:	2450ab30 	addiu	s0,v0,-21712
  4102a4:	12c89fa7 	beq	s6,t0,3f8144 <main-0x7f6c>
  4102a8:	d4ae2802 	0xd4ae2802
  4102ac:	a953f227 	swl	s3,-3545(t2)
  4102b0:	4f1f21f7 	c3	0x11f21f7
  4102b4:	ca56dc47 	lwc2	$22,-9145(s2)
  4102b8:	a34d661b 	sb	t5,26139(k0)
  4102bc:	958d7a11 	lhu	t5,31249(t4)
  4102c0:	e5905bc4 	swc1	$f16,23492(t4)
  4102c4:	5547e2ad 	0x5547e2ad
  4102c8:	ddda9fea 	0xddda9fea
  4102cc:	221ecc44 	addi	s8,s0,-13244
  4102d0:	91588678 	lbu	t8,-31112(t2)
  4102d4:	76a12273 	jalx	a8489cc <_gp+0xa4300cc>
  4102d8:	75efa027 	jalx	7be809c <_gp+0x77cf79c>
  4102dc:	38464542 	xori	a2,v0,0x4542
  4102e0:	e0fd906c 	swc0	$29,-28564(a3)
  4102e4:	e50e768f 	swc1	$f14,30351(t0)
  4102e8:	975a78de 	lhu	k0,30942(k0)
  4102ec:	3f736d6a 	0x3f736d6a
  4102f0:	7eade276 	0x7eade276
  4102f4:	45db273e 	0x45db273e
  4102f8:	16613ee9 	bne	s3,at,41fea0 <_gp+0x75a0>
  4102fc:	41cc9f79 	0x41cc9f79
  410300:	67608bd2 	0x67608bd2
  410304:	4b8fd8dd 	c2	0x18fd8dd
  410308:	934a22c9 	lbu	t2,8905(k0)
  41030c:	ad03c7b6 	sw	v1,-14410(t0)
  410310:	a870d2a4 	swl	s0,-11612(v1)
  410314:	aba2f83f 	swl	v0,-1985(sp)
  410318:	72d2ae9f 	0x72d2ae9f
  41031c:	f303d85f 	0xf303d85f
  410320:	87fdaa0d 	lh	sp,-22003(ra)
  410324:	6390ddf3 	0x6390ddf3
  410328:	d12264c4 	0xd12264c4
  41032c:	4f4a03e4 	c3	0x14a03e4
  410330:	54106d9a 	0x54106d9a
  410334:	e404746f 	swc1	$f4,29807(zero)
  410338:	65b8ff73 	0x65b8ff73
  41033c:	f899cdca 	0xf899cdca
  410340:	3b1af1c5 	xori	k0,t8,0xf1c5
  410344:	ee8a0741 	swc3	$10,1857(s4)
  410348:	e4836974 	swc1	$f3,26996(a0)
  41034c:	410e2045 	0x410e2045
  410350:	1a35dc47 	0x1a35dc47
  410354:	c120f8fe 	lwc0	c0_index,-1794(t1)
  410358:	c4531825 	lwc1	$f19,6181(v0)
  41035c:	e70750c6 	swc1	$f7,20678(t8)
  410360:	cfcf6b83 	lwc3	$15,27523(s8)
  410364:	a4a14342 	sh	at,17218(a1)
  410368:	a5b64b2a 	sh	s6,19242(t5)
  41036c:	a7c723de 	sh	a3,9182(s8)
  410370:	e4e1052e 	swc1	$f1,1326(a3)
  410374:	0585edcd 	0x585edcd
  410378:	c10b79e6 	lwc0	$11,31206(t0)
  41037c:	cefd0174 	lwc3	$29,372(s7)
  410380:	11811a71 	beq	t4,at,416d48 <_end+0x61fc>
  410384:	c8a9d045 	lwc2	$9,-12219(a1)
  410388:	b9ea2c81 	swr	t2,11393(t7)
  41038c:	637845d9 	0x637845d9
  410390:	d6dcf9cb 	0xd6dcf9cb
  410394:	1071576a 	beq	v1,s1,426140 <_gp+0xd840>
  410398:	11d6ceb9 	beq	t6,s6,403e80 <main+0x3dd0>
  41039c:	0351ccc1 	0x351ccc1
  4103a0:	91baf4cf 	lbu	k0,-2865(t5)
  4103a4:	cd72134a 	lwc3	$18,4938(t3)
  4103a8:	72377bc0 	0x72377bc0
  4103ac:	aa3bc876 	swl	k1,-14218(s1)
  4103b0:	d17d25e5 	0xd17d25e5
  4103b4:	0920ffcf 	j	483ff3c <_gp+0x442763c>
  4103b8:	fed1ed09 	0xfed1ed09
  4103bc:	9bea4716 	lwr	t2,18198(ra)
  4103c0:	beafffdf 	0xbeafffdf
  4103c4:	908bfbe5 	lbu	t3,-1051(a0)
  4103c8:	b5d21584 	0xb5d21584
  4103cc:	c69b78e3 	lwc1	$f27,30947(s4)
  4103d0:	b0bae3da 	0xb0bae3da
  4103d4:	0b6b4d80 	j	dad3600 <_gp+0xd6bad00>
  4103d8:	898136b8 	lwl	at,14008(t4)
  4103dc:	804917d5 	lb	t1,6101(v0)
  4103e0:	14999fb3 	bne	a0,t9,3f82b0 <main-0x7e00>
  4103e4:	cd964b44 	lwc3	$22,19268(t4)
  4103e8:	f2deadb5 	0xf2deadb5
  4103ec:	e2f1eff1 	swc0	$17,-4111(s7)
  4103f0:	1679ea32 	bne	s3,t9,40acbc <main+0xac0c>
  4103f4:	e127ef4d 	swc0	$7,-4275(t1)
  4103f8:	5dc4fd29 	0x5dc4fd29
  4103fc:	a6a69eee 	sh	a2,-24850(s5)
  410400:	1700c825 	bnez	t8,402498 <main+0x23e8>
  410404:	54480d95 	0x54480d95
  410408:	0e3ebecc 	jal	8fafb30 <_gp+0x8b97230>
  41040c:	d895eca8 	0xd895eca8
  410410:	2344ffae 	addi	a0,k0,-82
  410414:	708cd3be 	0x708cd3be
  410418:	b4afecaa 	0xb4afecaa
  41041c:	c5b022c3 	lwc1	$f16,8899(t5)
  410420:	3fee7398 	0x3fee7398
  410424:	8f501b60 	lw	s0,7008(k0)
  410428:	d0aa0b39 	0xd0aa0b39
  41042c:	7b81a592 	0x7b81a592
  410430:	1d54fed3 	0x1d54fed3
  410434:	15ea8d7d 	bne	t7,t2,3f3a2c <main-0xc684>
  410438:	fa97005c 	0xfa97005c
  41043c:	43048b4b 	c0	0x1048b4b
  410440:	5a1b567c 	0x5a1b567c
  410444:	0166faca 	0x166faca
  410448:	d9725f71 	0xd9725f71
  41044c:	220c1c69 	addi	t4,s0,7273
  410450:	9d542acb 	0x9d542acb
  410454:	19045728 	0x19045728
  410458:	40a615dd 	0x40a615dd
  41045c:	71220958 	0x71220958
  410460:	0127ecdc 	0x127ecdc
  410464:	5108e038 	0x5108e038
  410468:	8c5ebbc7 	lw	s8,-17465(v0)
  41046c:	313d9b53 	andi	sp,t1,0x9b53
  410470:	adc80d52 	sw	t0,3410(t6)
  410474:	f463c12f 	0xf463c12f
  410478:	08f071cf 	j	3c1c73c <_gp+0x3803e3c>
  41047c:	4304c5b9 	c0	0x104c5b9
  410480:	e35b45de 	swc0	$27,17886(k0)
  410484:	9b67a2cc 	lwr	a3,-23860(k1)
  410488:	e8bb0317 	swc2	$27,791(a1)

0041048c <secondM>:
  41048c:	16ee51db 	bne	s7,t6,424bfc <_gp+0xc2fc>
  410490:	34fcd866 	ori	gp,a3,0xd866
  410494:	774b1e32 	jalx	d2c78c8 <_gp+0xceaefc8>
  410498:	400bcd5d 	0x400bcd5d
  41049c:	7bce1171 	0x7bce1171
  4104a0:	71b0fd16 	0x71b0fd16
  4104a4:	204da59a 	addi	t5,v0,-23142
  4104a8:	13998f5e 	beq	gp,t9,3f4224 <main-0xbe8c>
  4104ac:	7933432b 	0x7933432b
  4104b0:	1c5d3b64 	0x1c5d3b64
  4104b4:	3c8cb17f 	0x3c8cb17f
  4104b8:	38cacbd9 	xori	t2,a2,0xcbd9
  4104bc:	67f777f7 	0x67f777f7
  4104c0:	374cd622 	ori	t4,k0,0xd622
  4104c4:	1f8b72b3 	0x1f8b72b3
  4104c8:	600bc283 	0x600bc283
  4104cc:	6b480386 	0x6b480386
  4104d0:	2fb83b63 	sltiu	t8,sp,15203
  4104d4:	04ed3b9c 	0x4ed3b9c
  4104d8:	77e45c33 	jalx	f9170cc <_gp+0xf4fe7cc>
  4104dc:	6d458e88 	0x6d458e88
  4104e0:	54d59274 	0x54d59274
  4104e4:	785dd5a3 	0x785dd5a3
  4104e8:	68d43b75 	0x68d43b75
  4104ec:	56dc75ac 	0x56dc75ac
  4104f0:	6168ae35 	0x6168ae35
  4104f4:	68221f89 	0x68221f89
  4104f8:	3d7d46ea 	0x3d7d46ea
  4104fc:	34b358ea 	ori	s3,a1,0x58ea
  410500:	39865784 	xori	a2,t4,0x5784
  410504:	07355d4c 	0x7355d4c
  410508:	1edac8bf 	0x1edac8bf
  41050c:	612b3ee3 	0x612b3ee3
  410510:	147faa9b 	bne	v1,ra,3faf80 <main-0x5130>
  410514:	091afe20 	j	46bf880 <_gp+0x42a6f80>
  410518:	1fef1936 	0x1fef1936
  41051c:	33244d6f 	andi	a0,t9,0x4d6f
  410520:	103c2d6b 	beq	at,gp,41bad0 <_gp+0x31d0>
  410524:	1485b17e 	bne	a0,a1,3fcb20 <main-0x3590>
  410528:	5e19b2c5 	0x5e19b2c5
  41052c:	35c0a219 	ori	zero,t6,0xa219
  410530:	570a4e9b 	0x570a4e9b
  410534:	3788150e 	ori	t0,gp,0x150e
  410538:	1ce2f1e5 	0x1ce2f1e5
  41053c:	25ae518b 	addiu	t6,t5,20875
  410540:	56bb1cd6 	0x56bb1cd6
  410544:	10fb2dd5 	beq	a3,k1,41bc9c <_gp+0x339c>
  410548:	07223902 	0x7223902
  41054c:	40be5682 	0x40be5682
  410550:	0bf90b3b 	j	fe42cec <_gp+0xfa2a3ec>
  410554:	46e41bd4 	c1	0xe41bd4
  410558:	77976411 	jalx	e5d9044 <_gp+0xe1c0744>
  41055c:	282222b0 	slti	v0,at,8880
  410560:	0865f793 	j	197de4c <_gp+0x156554c>
  410564:	28122cad 	slti	s2,zero,11437
  410568:	051e9749 	0x51e9749
  41056c:	47c55a22 	c1	0x1c55a22
  410570:	49125845 	0x49125845
  410574:	158f524f 	bne	t4,t7,424eb4 <_gp+0xc5b4>
  410578:	05726234 	0x5726234
  41057c:	631da4f8 	0x631da4f8
  410580:	7aa2154a 	0x7aa2154a
  410584:	276650c7 	addiu	a2,k1,20679
  410588:	4127dca3 	0x4127dca3
  41058c:	0757abad 	0x757abad
  410590:	1a030f47 	0x1a030f47
  410594:	671d62d7 	0x671d62d7
  410598:	5859035e 	0x5859035e
  41059c:	12c2756a 	beq	s6,v0,42db48 <_gp+0x15248>
  4105a0:	00be4137 	0xbe4137
  4105a4:	41f4e15a 	0x41f4e15a
  4105a8:	1c7f89ad 	0x1c7f89ad
  4105ac:	239f716c 	addi	ra,gp,29036
  4105b0:	3dc3cbd2 	0x3dc3cbd2
  4105b4:	0b2c4df6 	j	cb137d8 <_gp+0xc6faed8>
  4105b8:	1b7b5d8c 	0x1b7b5d8c
  4105bc:	48fa3365 	0x48fa3365
  4105c0:	3336ae6a 	andi	s6,t9,0xae6a
  4105c4:	0d56c298 	jal	55b0a60 <_gp+0x5198160>
  4105c8:	6394cc9c 	0x6394cc9c
  4105cc:	4cf13b10 	0x4cf13b10
  4105d0:	7ff9282e 	0x7ff9282e
  4105d4:	73f293d0 	0x73f293d0
  4105d8:	3bfaa83d 	xori	k0,ra,0xa83d
  4105dc:	3bf7eb24 	xori	s7,ra,0xeb24
  4105e0:	77a5e062 	jalx	e978188 <_gp+0xe55f888>
  4105e4:	79a76cb9 	0x79a76cb9
  4105e8:	77e5cdae 	jalx	f9736b8 <_gp+0xf55adb8>
  4105ec:	4f2971ed 	c3	0x12971ed
  4105f0:	005b9e19 	0x5b9e19
  4105f4:	51038ca2 	0x51038ca2
  4105f8:	4c482153 	0x4c482153
  4105fc:	3cdedd05 	0x3cdedd05
  410600:	6610eff6 	0x6610eff6
  410604:	716093e5 	0x716093e5
  410608:	1dc4f0be 	0x1dc4f0be
  41060c:	47b01fed 	c1	0x1b01fed
  410610:	6d95bf92 	0x6d95bf92
  410614:	69d68d36 	0x69d68d36
  410618:	380920ed 	xori	t1,zero,0x20ed
  41061c:	2f8a9e4b 	sltiu	t2,gp,-25013
  410620:	324ee809 	andi	t6,s2,0xe809
  410624:	4afe8a90 	c2	0xfe8a90
  410628:	234266fa 	addi	v0,k0,26362
  41062c:	7676e579 	jalx	9db95e4 <_gp+0x99a0ce4>
  410630:	68a692ec 	0x68a692ec
  410634:	6125c137 	0x6125c137
  410638:	0312aac9 	0x312aac9
  41063c:	73b1cb31 	0x73b1cb31
  410640:	2c973f0d 	sltiu	s7,a0,16141
  410644:	4966d684 	0x4966d684
  410648:	02698ed0 	0x2698ed0
  41064c:	11ebcd41 	beq	t7,t3,403b54 <main+0x3aa4>
  410650:	722e6c54 	0x722e6c54
  410654:	5f7beacf 	0x5f7beacf
  410658:	3c743f5d 	0x3c743f5d
  41065c:	0f7c6ea9 	jal	df1baa4 <_gp+0xdb031a4>
  410660:	5885f018 	0x5885f018
  410664:	6e315d4b 	0x6e315d4b
  410668:	26cc6a8a 	addiu	t4,s6,27274
  41066c:	0b0a0cdb 	j	c28336c <_gp+0xbe6aa6c>
  410670:	1be573a9 	0x1be573a9
  410674:	02278b04 	0x2278b04
  410678:	7259533e 	0x7259533e
  41067c:	67d1f5c4 	0x67d1f5c4
  410680:	0dd6c712 	jal	75b1c48 <_gp+0x7199348>
  410684:	3b297e48 	xori	t1,t9,0x7e48
  410688:	30a4662e 	andi	a0,a1,0x662e
  41068c:	5ac49354 	0x5ac49354
  410690:	709836f0 	0x709836f0
  410694:	772d9122 	jalx	cb64488 <_gp+0xc74bb88>
  410698:	06e07e36 	bltz	s7,42ff74 <_gp+0x17674>
  41069c:	37fa9f1a 	ori	k0,ra,0x9f1a
  4106a0:	2214b026 	addi	s4,s0,-20442
  4106a4:	69a21012 	0x69a21012
  4106a8:	4626428b 	c1	0x26428b
  4106ac:	0e845371 	jal	a114dc4 <_gp+0x9cfc4c4>
  4106b0:	77d8fdb9 	jalx	f63f6e4 <_gp+0xf226de4>
  4106b4:	352c7ad8 	ori	t4,t1,0x7ad8
  4106b8:	5a43238c 	0x5a43238c
  4106bc:	3229a50d 	andi	t1,s1,0xa50d
  4106c0:	78107c97 	0x78107c97
  4106c4:	69c48293 	0x69c48293
  4106c8:	7c5fcff3 	0x7c5fcff3

004106cc <firstM>:
  4106cc:	001f8b3d 	0x1f8b3d
  4106d0:	78400c9f 	0x78400c9f
  4106d4:	43e32bb7 	c0	0x1e32bb7
  4106d8:	64aba1cd 	0x64aba1cd
  4106dc:	46d7b584 	c1	0xd7b584
  4106e0:	15db5137 	bne	t6,k1,424bc0 <_gp+0xc2c0>
  4106e4:	1ab7e9aa 	0x1ab7e9aa
  4106e8:	49b33207 	0x49b33207
  4106ec:	46936e5f 	c1	0x936e5f
  4106f0:	147efa37 	bne	v1,s8,40efd0 <main+0xef20>
  4106f4:	2ce630c8 	sltiu	a2,a3,12488
  4106f8:	38d927e7 	xori	t9,a2,0x27e7
  4106fc:	0a0d30b0 	j	834c2c0 <_gp+0x7f339c0>
  410700:	27e52e74 	addiu	a1,ra,11892
  410704:	157e6e8b 	bne	t3,s8,42c134 <_gp+0x13834>
  410708:	7c1755f2 	0x7c1755f2
  41070c:	240f57b8 	li	t7,22456
  410710:	44df8970 	0x44df8970
  410714:	6842f90e 	0x6842f90e
  410718:	72e4814a 	0x72e4814a
  41071c:	316155c3 	andi	at,t3,0x55c3
  410720:	7190bac3 	0x7190bac3
  410724:	1182292f 	beq	t4,v0,41abe4 <_gp+0x22e4>
  410728:	5874fe11 	0x5874fe11
  41072c:	458bb417 	0x458bb417
  410730:	23b19bc1 	addi	s1,sp,-25663
  410734:	1f854b89 	0x1f854b89
  410738:	184490c8 	0x184490c8
  41073c:	6bbacc2f 	0x6bbacc2f
  410740:	6a9285ad 	0x6a9285ad
  410744:	22dbb89d 	addi	k1,s6,-18275
  410748:	40802c46 	0x40802c46
  41074c:	2db1836c 	sltiu	s1,t5,-31892
  410750:	5e2ddaeb 	0x5e2ddaeb
  410754:	4999b0a0 	0x4999b0a0
  410758:	4b21eb8b 	c2	0x121eb8b
  41075c:	0a60389b 	j	980e26c <_gp+0x93f596c>
  410760:	1457cca4 	bne	v0,s7,4039f4 <main+0x3944>
  410764:	5ec9d420 	0x5ec9d420
  410768:	5547d1b8 	0x5547d1b8
  41076c:	6927d3c6 	0x6927d3c6
  410770:	79d232e0 	0x79d232e0
  410774:	65aecec1 	0x65aecec1
  410778:	471e669d 	c1	0x11e669d
  41077c:	77770033 	jalx	ddc00cc <_gp+0xd9a77cc>
  410780:	576b9000 	0x576b9000
  410784:	16625216 	bne	s3,v0,424fe0 <_gp+0xc6e0>
  410788:	5a7e03a8 	0x5a7e03a8
  41078c:	57ccb5f6 	0x57ccb5f6
  410790:	10219203 	beq	at,at,3f4fa0 <main-0xb110>
  410794:	0b5054a1 	j	d415284 <_gp+0xcffc984>
  410798:	29df1fa8 	slti	ra,t6,8104
  41079c:	742ad56d 	jalx	ab55b4 <_gp+0x69ccb4>
  4107a0:	59136565 	0x59136565
  4107a4:	5e60d833 	0x5e60d833
  4107a8:	41332668 	0x41332668
  4107ac:	1b5e3c3f 	0x1b5e3c3f
  4107b0:	6da092fd 	0x6da092fd
  4107b4:	53613f7d 	0x53613f7d
  4107b8:	7464cb97 	jalx	1932e5c <_gp+0x151a55c>
  4107bc:	188d46b7 	0x188d46b7
  4107c0:	2f39c89e 	sltiu	t9,t9,-14178
  4107c4:	2723ec2c 	addiu	v1,t9,-5076
  4107c8:	2e414d06 	sltiu	at,s2,19718
  4107cc:	200672c0 	addi	a2,zero,29376
  4107d0:	0cc7ee9f 	jal	31fba7c <_gp+0x2de317c>
  4107d4:	3ee00ba8 	0x3ee00ba8
  4107d8:	3a444624 	xori	a0,s2,0x4624
  4107dc:	3bec3da2 	xori	t4,ra,0x3da2
  4107e0:	1caa8bc5 	0x1caa8bc5
  4107e4:	4aab8242 	c2	0xab8242
  4107e8:	33f6fd8a 	andi	s6,ra,0xfd8a
  4107ec:	7927cb78 	0x7927cb78
  4107f0:	38cf7bb9 	xori	t7,a2,0x7bb9
  4107f4:	017a67ac 	0x17a67ac
  4107f8:	09b25735 	j	6c95cd4 <_gp+0x687d3d4>
  4107fc:	403aa06c 	0x403aa06c
  410800:	22445151 	addi	a0,s2,20817
  410804:	4af4cb6a 	c2	0xf4cb6a
  410808:	3b018fff 	xori	at,t8,0x8fff
  41080c:	3e0548d7 	0x3e0548d7
  410810:	715cbee6 	0x715cbee6
  410814:	3ebd25a5 	0x3ebd25a5
  410818:	3ac67828 	xori	a2,s6,0x7828
  41081c:	453b5b8e 	0x453b5b8e
  410820:	116ea73e 	beq	t3,t6,3fa51c <main-0x5b94>
  410824:	2b2e7f4c 	slti	t6,t9,32588
  410828:	5ed32414 	0x5ed32414
  41082c:	10229801 	beq	at,v0,3f6834 <main-0x987c>
  410830:	29f6a735 	slti	s6,t7,-22731
  410834:	7ee87b7d 	0x7ee87b7d
  410838:	4006093b 	0x4006093b
  41083c:	1383f745 	beq	gp,v1,40e554 <main+0xe4a4>
  410840:	4b80927b 	c2	0x180927b
  410844:	61fa33d3 	0x61fa33d3
  410848:	7b8dd989 	0x7b8dd989
  41084c:	6c995936 	0x6c995936
  410850:	7c00255f 	0x7c00255f
  410854:	02544273 	0x2544273
  410858:	04d10a83 	bgezal	a2,413268 <_end+0x271c>
  41085c:	5f50c458 	0x5f50c458
  410860:	359e664f 	ori	s8,t4,0x664f
  410864:	5a63c0ac 	0x5a63c0ac
  410868:	0d3b1a67 	jal	4ec699c <_gp+0x4aae09c>
  41086c:	5c76b92b 	0x5c76b92b
  410870:	77d3a7b1 	jalx	f4e9ec4 <_gp+0xf0d15c4>
  410874:	0ff7f9a1 	jal	fdfe684 <_gp+0xf9e5d84>
  410878:	75b033b4 	jalx	6c0ced0 <_gp+0x67f45d0>
  41087c:	3e8a73b2 	0x3e8a73b2
  410880:	1d93394e 	0x1d93394e
  410884:	7dac8559 	0x7dac8559
  410888:	7e8d99c1 	0x7e8d99c1
  41088c:	601efaec 	0x601efaec
  410890:	0ff06f98 	jal	fc1be60 <_gp+0xf803560>
  410894:	45ca395c 	0x45ca395c
  410898:	4074ed02 	0x4074ed02
  41089c:	73ec11ac 	0x73ec11ac
  4108a0:	32452130 	andi	a1,s2,0x2130
  4108a4:	4155e50f 	0x4155e50f
  4108a8:	6ae41f71 	0x6ae41f71
  4108ac:	36669dec 	ori	a2,s3,0x9dec
  4108b0:	40d20386 	0x40d20386
  4108b4:	750c6a8d 	jalx	431aa34 <_gp+0x3f02134>
  4108b8:	7217b4b6 	0x7217b4b6
  4108bc:	46684618 	c1	0x684618
  4108c0:	095e4c1c 	j	5793070 <_gp+0x537a770>
  4108c4:	0fa775d7 	jal	e9dd75c <_gp+0xe5c4e5c>
  4108c8:	2121c750 	addi	at,t1,-14512
  4108cc:	79306ef4 	0x79306ef4
  4108d0:	1fa49e5a 	0x1fa49e5a
  4108d4:	193f0050 	0x193f0050
  4108d8:	50938c4e 	0x50938c4e
  4108dc:	7c7e0ec0 	0x7c7e0ec0
  4108e0:	26e380ac 	addiu	v1,s7,-32596
  4108e4:	7c38a044 	0x7c38a044
  4108e8:	0ecd43ec 	jal	b350fb0 <_gp+0xaf386b0>
  4108ec:	79dad7a7 	0x79dad7a7
  4108f0:	11822729 	beq	t4,v0,41a598 <_gp+0x1c98>
  4108f4:	46f9ba27 	c1	0xf9ba27
  4108f8:	7b35162d 	0x7b35162d
  4108fc:	6dd2ea9f 	0x6dd2ea9f
  410900:	4c131235 	0x4c131235
  410904:	0263db16 	0x263db16
  410908:	6458b724 	0x6458b724

Disassembly of section .bss:

0041090c <resultM>:
	...

Disassembly of section .comment:

00000000 <.comment>:
   0:	3a434347 	xori	v1,s2,0x4347
   4:	72632820 	0x72632820
   8:	7473736f 	jalx	1cdcdbc <_gp+0x18c44bc>
   c:	2d6c6f6f 	sltiu	t4,t3,28527
  10:	3120474e 	andi	zero,t1,0x474e
  14:	2e34322e 	sltiu	s4,s1,12846
  18:	38202930 	xori	zero,at,0x2930
  1c:	302e332e 	andi	t6,at,0x332e
	...

Disassembly of section .pdr:

00000000 <.pdr>:
   0:	004000b0 	0x4000b0
	...
  14:	00000010 	mfhi	zero
  18:	0000001d 	0x1d
  1c:	0000001f 	0x1f

Disassembly of section .gnu.attributes:

00000000 <.gnu.attributes>:
   0:	00000f41 	0xf41
   4:	756e6700 	jalx	5b99c00 <_gp+0x5781300>
   8:	00070100 	sll	zero,a3,0x4
   c:	03040000 	0x3040000
